ccopy_reg
_reconstructor
p1
(cargparse
Namespace
p2
c__builtin__
object
p3
NtRp4
(dp5
S'toy_data_size'
p6
I1000
sS'window_size'
p7
I5
sS'optimizer'
p8
S'Adam'
p9
sS'decay_rate'
p10
F0.94999999999999996
sS'learning_rate'
p11
F0.01
sS'decay_steps'
p12
I5000
sS'quiet'
p13
I00
sS'batch_size'
p14
I10
sS'n_epochs'
p15
I100
sS'n_rnn_hidden'
p16
I150
sS'max_seq_len'
p17
I60
sS'seed'
p18
I3502951324
sS'toy_data'
p19
I01
sS'embedding_size'
p20
I50
sS'nshuffle'
p21
I00
sS'vocabulary_size'
p22
I4554
sS'label_size'
p23
I4
sS'keep_prob'
p24
F0.80000000000000004
sS'l2_coefficient'
p25
F0.0001
sb.